; Function Attrs: mustprogress uwtable
define void @_ZNK32pxrInternal_v0_24__pxrReserved__15TfDiagnosticMgr12StatusHelper12PostWithInfoERKNSt7__cxx1112basic_stringIcSt11char_traitsIcESaIcEEESt3any(ptr noundef nonnull align 8 dereferenceable(64) %0, ptr noundef nonnull align 8 dereferenceable(32) %1, ptr noundef %2) local_unnamed_addr #0 align 2 personality ptr @__gxx_personality_v0 {
  %4 = alloca %"union.std::any::_Arg", align 8
  %5 = alloca %"class.std::any", align 8
  %6 = load atomic i64, ptr @_ZN32pxrInternal_v0_24__pxrReserved__11TfSingletonINS_15TfDiagnosticMgrEE9_instanceE seq_cst, align 8
  %.0.i.i.i = inttoptr i64 %6 to ptr
  %.not.i.i = icmp eq i64 %6, 0
  br i1 %.not.i.i, label %7, label %_ZN32pxrInternal_v0_24__pxrReserved__15TfDiagnosticMgr11GetInstanceEv.exit

7:                                                ; preds = %3
  %8 = tail call noundef ptr @_ZN32pxrInternal_v0_24__pxrReserved__11TfSingletonINS_15TfDiagnosticMgrEE15_CreateInstanceERSt6atomicIPS1_E(ptr noundef nonnull align 8 dereferenceable(8) @_ZN32pxrInternal_v0_24__pxrReserved__11TfSingletonINS_15TfDiagnosticMgrEE9_instanceE)
  br label %_ZN32pxrInternal_v0_24__pxrReserved__15TfDiagnosticMgr11GetInstanceEv.exit

_ZN32pxrInternal_v0_24__pxrReserved__15TfDiagnosticMgr11GetInstanceEv.exit: ; preds = %3, %7
  %.0.i.i = phi ptr [ %.0.i.i.i, %3 ], [ %8, %7 ]
  %9 = getelementptr inbounds nuw i8, ptr %0, i64 40
  %.sroa.0.0.copyload = load ptr, ptr %9, align 8
  %.sroa.2.0..sroa_idx = getelementptr inbounds nuw i8, ptr %0, i64 48
  %.sroa.2.0.copyload = load i32, ptr %.sroa.2.0..sroa_idx, align 8
  %10 = getelementptr inbounds nuw i8, ptr %0, i64 56
  %11 = load ptr, ptr %10, align 8
  call void @llvm.lifetime.start.p0(i64 8, ptr nonnull %4)
  %12 = getelementptr inbounds nuw i8, ptr %5, i64 8
  store ptr null, ptr %12, align 8
  %13 = load ptr, ptr %2, align 8
  %.not.i = icmp eq ptr %13, null
  br i1 %.not.i, label %14, label %15

14:                                               ; preds = %_ZN32pxrInternal_v0_24__pxrReserved__15TfDiagnosticMgr11GetInstanceEv.exit
  store ptr null, ptr %5, align 8
  br label %_ZNSt3anyC2ERKS_.exit

15:                                               ; preds = %_ZN32pxrInternal_v0_24__pxrReserved__15TfDiagnosticMgr11GetInstanceEv.exit
  store ptr %5, ptr %4, align 8
  call void %13(i32 noundef 2, ptr noundef nonnull align 8 dereferenceable(16) %2, ptr noundef nonnull %4)
  br label %_ZNSt3anyC2ERKS_.exit

_ZNSt3anyC2ERKS_.exit:                            ; preds = %14, %15
  call void @llvm.lifetime.end.p0(i64 8, ptr nonnull %4)
  invoke void @_ZNK32pxrInternal_v0_24__pxrReserved__15TfDiagnosticMgr10PostStatusENS_6TfEnumEPKcRKNS_13TfCallContextERKNSt7__cxx1112basic_stringIcSt11char_traitsIcESaIcEEESt3anyb(ptr noundef nonnull align 8 dereferenceable(481) %.0.i.i, ptr %.sroa.0.0.copyload, i32 %.sroa.2.0.copyload, ptr noundef %11, ptr noundef nonnull align 8 dereferenceable(33) %0, ptr noundef nonnull align 8 dereferenceable(32) %1, ptr noundef nonnull %5, i1 noundef zeroext false)
          to label %16 unwind label %22

16:                                               ; preds = %_ZNSt3anyC2ERKS_.exit
  %17 = load ptr, ptr %5, align 8
  %.not.i.i3 = icmp eq ptr %17, null
  br i1 %.not.i.i3, label %_ZNSt3anyD2Ev.exit, label %18

18:                                               ; preds = %16
  invoke void %17(i32 noundef 3, ptr noundef nonnull align 8 dereferenceable(16) %5, ptr noundef null)
          to label %_ZNSt3anyD2Ev.exit unwind label %19

19:                                               ; preds = %18
  %20 = landingpad { ptr, i32 }
          catch ptr null
  %21 = extractvalue { ptr, i32 } %20, 0
  call void @__clang_call_terminate(ptr %21) #30
  unreachable

_ZNSt3anyD2Ev.exit:                               ; preds = %18, %16
  ret void

22:                                               ; preds = %_ZNSt3anyC2ERKS_.exit
  %23 = landingpad { ptr, i32 }
          cleanup
  call void @_ZNSt3anyD2Ev(ptr noundef nonnull align 8 dereferenceable(16) %5) #23
  resume { ptr, i32 } %23
}